; Function Attrs: nounwind uwtable
define ptr @Abc_SopSynthesizeOne(ptr noundef %0, i32 noundef %1) local_unnamed_addr #0 {
  %3 = tail call i64 @strlen(ptr noundef nonnull dereferenceable(1) %0) #31
  %4 = icmp eq i64 %3, 3
  br i1 %4, label %5, label %Vec_PtrPush.exit

5:                                                ; preds = %2
  %6 = tail call ptr @Gia_ManStart(i32 noundef 1) #28
  %7 = tail call noalias dereferenceable_or_null(4) ptr @malloc(i64 noundef 4) #30
  store i32 7368564, ptr %7, align 1
  store ptr %7, ptr %6, align 8
  %8 = getelementptr inbounds nuw i8, ptr %0, i64 1
  %9 = load i8, ptr %8, align 1
  %10 = icmp eq i8 %9, 49
  %11 = zext i1 %10 to i32
  tail call fastcc void @Gia_ManAppendCo(ptr noundef nonnull %6, i32 noundef %11)
  br label %29

Vec_PtrPush.exit:                                 ; preds = %2
  %12 = tail call noalias dereferenceable_or_null(16) ptr @malloc(i64 noundef 16) #30
  %13 = getelementptr inbounds nuw i8, ptr %12, i64 4
  store i32 8, ptr %12, align 8
  %14 = tail call noalias dereferenceable_or_null(64) ptr @malloc(i64 noundef 64) #30
  %15 = getelementptr inbounds nuw i8, ptr %12, i64 8
  store ptr %14, ptr %15, align 8
  store i32 1, ptr %13, align 4
  store ptr %0, ptr %14, align 8
  %16 = tail call ptr @Abc_NtkCreateFromSops(ptr noundef nonnull @.str.44, ptr noundef nonnull %12) #28
  %17 = load ptr, ptr %15, align 8
  %.not.i = icmp eq ptr %17, null
  br i1 %.not.i, label %Vec_PtrFree.exit, label %18

18:                                               ; preds = %Vec_PtrPush.exit
  tail call void @free(ptr noundef nonnull %17) #28
  br label %Vec_PtrFree.exit

Vec_PtrFree.exit:                                 ; preds = %Vec_PtrPush.exit, %18
  tail call void @free(ptr noundef nonnull %12) #28
  %19 = tail call ptr (...) @Abc_FrameReadGlobalFrame() #28
  tail call void @Abc_FrameReplaceCurrentNetwork(ptr noundef %19, ptr noundef %16) #28
  tail call void @Abc_FrameSetBatchMode(i32 noundef 1) #28
  %.not = icmp eq i32 %1, 0
  br i1 %.not, label %23, label %20

20:                                               ; preds = %Vec_PtrFree.exit
  %21 = tail call ptr (...) @Abc_FrameGetGlobalFrame() #28
  %22 = tail call i32 @Cmd_CommandExecute(ptr noundef %21, ptr noundef nonnull @.str.48) #28
  br label %23

23:                                               ; preds = %20, %Vec_PtrFree.exit
  %24 = tail call ptr (...) @Abc_FrameGetGlobalFrame() #28
  %25 = tail call i32 @Cmd_CommandExecute(ptr noundef %24, ptr noundef nonnull @.str.49) #28
  tail call void @Abc_FrameSetBatchMode(i32 noundef 0) #28
  %26 = tail call ptr (...) @Abc_FrameReadGlobalFrame() #28
  %27 = tail call ptr @Abc_FrameReadNtk(ptr noundef %26) #28
  %28 = tail call ptr @Abc_NtkStrashToGia(ptr noundef %27)
  br label %29

29:                                               ; preds = %23, %5
  %.0 = phi ptr [ %6, %5 ], [ %28, %23 ]
  ret ptr %.0
}